; Function Attrs: mustprogress uwtable
define hidden void @_ZN2qe15expr_quant_elim13abstract_exprEjPKP4exprR7obj_refIS1_11ast_managerE(ptr nocapture noundef nonnull readonly align 8 dereferenceable(80) %this, i32 noundef %sz, ptr noundef %bound, ptr nocapture noundef nonnull align 8 dereferenceable(16) %fml) local_unnamed_addr #3 align 2 personality ptr @__gxx_personality_v0 {
entry:
  %ref.tmp = alloca %class.obj_ref, align 8
  %cmp.not = icmp eq i32 %sz, 0
  br i1 %cmp.not, label %if.end, label %if.then

if.then:                                          ; preds = %entry
  %0 = load ptr, ptr %this, align 8
  %1 = load ptr, ptr %fml, align 8
  store ptr null, ptr %ref.tmp, align 8, !alias.scope !36
  %m_manager.i.i = getelementptr inbounds i8, ptr %ref.tmp, i64 8
  store ptr %0, ptr %m_manager.i.i, align 8, !alias.scope !36
  invoke void @_Z13expr_abstractR11ast_managerjjPKP4exprS2_R7obj_refIS1_S_E(ptr noundef nonnull align 8 dereferenceable(976) %0, i32 noundef 0, i32 noundef %sz, ptr noundef %bound, ptr noundef %1, ptr noundef nonnull align 8 dereferenceable(16) %ref.tmp)
          to label %_Z13expr_abstractR11ast_managerjjPKP4exprS2_.exit unwind label %lpad.i

lpad.i:                                           ; preds = %if.then
  %2 = landingpad { ptr, i32 }
          cleanup
  call void @_ZN7obj_refI4expr11ast_managerED2Ev(ptr noundef nonnull align 8 dereferenceable(16) %ref.tmp) #24
  resume { ptr, i32 } %2

_Z13expr_abstractR11ast_managerjjPKP4exprS2_.exit: ; preds = %if.then
  %3 = load ptr, ptr %fml, align 8
  %4 = load ptr, ptr %ref.tmp, align 8
  store ptr %4, ptr %fml, align 8
  store ptr %3, ptr %ref.tmp, align 8
  %tobool.not.i.i.i = icmp eq ptr %3, null
  br i1 %tobool.not.i.i.i, label %if.end, label %if.then.i.i.i.i

if.then.i.i.i.i:                                  ; preds = %_Z13expr_abstractR11ast_managerjjPKP4exprS2_.exit
  %5 = load ptr, ptr %m_manager.i.i, align 8
  %m_ref_count.i.i.i.i.i = getelementptr inbounds i8, ptr %3, i64 8
  %6 = load i32, ptr %m_ref_count.i.i.i.i.i, align 4
  %dec.i.i.i.i.i = add i32 %6, -1
  store i32 %dec.i.i.i.i.i, ptr %m_ref_count.i.i.i.i.i, align 4
  %cmp.i.i.i.i = icmp eq i32 %dec.i.i.i.i.i, 0
  br i1 %cmp.i.i.i.i, label %if.then2.i.i.i.i, label %if.end

if.then2.i.i.i.i:                                 ; preds = %if.then.i.i.i.i
  invoke void @_ZN11ast_manager11delete_nodeEP3ast(ptr noundef nonnull align 8 dereferenceable(976) %5, ptr noundef nonnull %3)
          to label %if.end unwind label %terminate.lpad.i

terminate.lpad.i:                                 ; preds = %if.then2.i.i.i.i
  %7 = landingpad { ptr, i32 }
          catch ptr null
  %8 = extractvalue { ptr, i32 } %7, 0
  call void @__clang_call_terminate(ptr %8) #25
  unreachable

if.end:                                           ; preds = %_Z13expr_abstractR11ast_managerjjPKP4exprS2_.exit, %if.then.i.i.i.i, %if.then2.i.i.i.i, %entry
  ret void
}